target datalayout = "e-m:e-p270:32:32-p271:32:32-p272:64:64-i64:64-i128:128-f80:128-n8:16:32:64-S128"
target triple = "x86_64-pc-linux-gnu"

%struct.Curl_easy = type { i32, i64, i64, ptr, %struct.Curl_llist_node, %struct.Curl_llist_node, i32, i32, %struct.Curl_message, %struct.easy_pollset, %struct.Names, ptr, ptr, ptr, ptr, %struct.SingleRequest, %struct.UserDefined, ptr, ptr, ptr, %struct.Progress, %struct.UrlState, ptr, %struct.PureInfo, %struct.curl_tlssessioninfo }
%struct.Curl_llist_node = type { ptr, ptr, ptr, ptr }
%struct.Curl_message = type { %struct.Curl_llist_node, %struct.CURLMsg }
%struct.CURLMsg = type { i32, ptr, %union.anon }
%union.anon = type { ptr }
%struct.easy_pollset = type { [5 x i32], i32, [5 x i8] }
%struct.Names = type { ptr, i32 }
%struct.SingleRequest = type <{ i64, i64, i64, i64, %struct.curltime, i32, i32, i32, i32, i64, i32, i32, i8, i8, [2 x i8], i32, ptr, ptr, %struct.bufq, i64, i64, ptr, ptr, %union.anon.0, ptr, i8, i32, [3 x i8] }>
%struct.curltime = type { i64, i32 }
%struct.bufq = type { ptr, ptr, ptr, ptr, i64, i64, i64, i32 }
%union.anon.0 = type { ptr }
%struct.UserDefined = type <{ ptr, ptr, ptr, ptr, ptr, ptr, i64, i64, i64, ptr, ptr, i64, ptr, ptr, ptr, ptr, ptr, ptr, ptr, ptr, ptr, ptr, ptr, ptr, ptr, ptr, ptr, ptr, ptr, ptr, ptr, ptr, ptr, ptr, ptr, i64, i64, i64, i64, i64, i64, i64, i64, i64, ptr, ptr, %struct.curl_mimepart, ptr, ptr, ptr, i64, %struct.ssl_config_data, %struct.ssl_config_data, ptr, i16, i8, i8, %struct.ssl_general_config, i32, i32, i32, [4 x i8], ptr, ptr, i64, i32, i8, i8, i8, i8, ptr, ptr, ptr, i32, [4 x i8], [74 x ptr], [8 x ptr], i32, i32, i32, [4 x i8], ptr, i32, [4 x i8], ptr, ptr, ptr, ptr, ptr, i32, i32, i32, i32, i32, i32, i32, i32, i64, ptr, ptr, i64, ptr, i64, ptr, ptr, ptr, ptr, i32, i16, i16, i16, i8, i8, i8, i8, i8, i8, i8, i8, i64, [6 x i8] }>
%struct.curl_mimepart = type { ptr, ptr, i32, i32, ptr, ptr, ptr, ptr, ptr, ptr, ptr, ptr, ptr, ptr, ptr, i64, %struct.mime_state, ptr, %struct.mime_encoder_state, i64 }
%struct.mime_state = type { i32, ptr, i64 }
%struct.mime_encoder_state = type { i64, i64, i64, [256 x i8] }
%struct.ssl_config_data = type { %struct.ssl_primary_config, i64, ptr, ptr, ptr, ptr, ptr, ptr, ptr, i16 }
%struct.ssl_primary_config = type { ptr, ptr, ptr, ptr, ptr, ptr, ptr, ptr, ptr, ptr, ptr, ptr, ptr, ptr, i8, i32, i8, i8 }
%struct.ssl_general_config = type { i32 }
%struct.Progress = type { i64, %struct.pgrs_dir, %struct.pgrs_dir, i64, i64, i32, i32, i64, i64, i64, i64, i64, i64, i64, i64, i64, %struct.curltime, %struct.curltime, %struct.curltime, %struct.curltime, %struct.curltime, [6 x i64], [6 x %struct.curltime], i32, i8 }
%struct.pgrs_dir = type { i64, i64, i64, %struct.pgrs_measure }
%struct.pgrs_measure = type { %struct.curltime, i64 }
%struct.UrlState = type { %struct.curltime, i64, i64, %struct.dynbuf, ptr, i64, ptr, i32, i32, i32, ptr, i32, i64, i32, ptr, %struct.digestdata, %struct.digestdata, %struct.auth, %struct.auth, %struct.Curl_async, ptr, i8, %struct.curltime, %struct.Curl_tree, %struct.Curl_llist, [15 x %struct.time_node], ptr, ptr, i64, i64, i64, i64, [32 x i8], i64, ptr, ptr, ptr, %struct.urlpieces, ptr, ptr, ptr, ptr, ptr, i64, %struct.dynbuf, %struct.Curl_llist, [2 x %struct.curl_header], ptr, i32, ptr, ptr, %struct.store_netrc, %struct.dynamically_allocated_data, i8, i8, i8, i8, i32 }
%struct.digestdata = type { ptr, ptr, ptr, ptr, ptr, ptr, i32, i8, i8 }
%struct.auth = type { i64, i64, i64, i8 }
%struct.Curl_async = type { ptr, ptr, ptr, ptr, i32, i32, i8 }
%struct.Curl_tree = type { ptr, ptr, ptr, ptr, %struct.curltime, ptr }
%struct.time_node = type { %struct.Curl_llist_node, %struct.curltime, i32 }
%struct.urlpieces = type { ptr, ptr, ptr, ptr, ptr, ptr, ptr, ptr }
%struct.dynbuf = type { ptr, i64, i64, i64 }
%struct.Curl_llist = type { ptr, ptr, ptr, i64 }
%struct.curl_header = type { ptr, ptr, i64, i64, i32, ptr }
%struct.store_netrc = type { %struct.dynbuf, ptr, i8 }
%struct.dynamically_allocated_data = type { ptr, ptr, ptr, ptr, ptr, ptr, ptr, ptr, ptr, ptr, ptr, ptr, ptr, ptr }
%struct.PureInfo = type { i32, i32, i32, i64, i64, i64, i64, i64, i64, i64, ptr, ptr, i64, i32, %struct.ip_quadruple, i32, ptr, i32, %struct.curl_certinfo, i32, i8 }
%struct.ip_quadruple = type { [46 x i8], [46 x i8], i32, i32 }
%struct.curl_certinfo = type { i32, ptr }
%struct.curl_tlssessioninfo = type { i32, ptr }
%struct.tm = type { i32, i32, i32, i32, i32, i32, i32, i32, i32, i64, ptr }

@.str.28 = private unnamed_addr constant [18 x i8] c"Invalid TIMEVALUE\00", align 1
@.str.29 = private unnamed_addr constant [18 x i8] c"If-Modified-Since\00", align 1
@.str.30 = private unnamed_addr constant [20 x i8] c"If-Unmodified-Since\00", align 1
@.str.31 = private unnamed_addr constant [14 x i8] c"Last-Modified\00", align 1
@.str.32 = private unnamed_addr constant [41 x i8] c"%s: %s, %02d %s %4d %02d:%02d:%02d GMT\0D\0A\00", align 1
@Curl_wkday = external constant [7 x ptr], align 16
@Curl_month = external constant [12 x ptr], align 16

; Function Attrs: nounwind uwtable
define hidden i32 @Curl_add_timecondition(ptr noundef %0, ptr noundef %1) #0 {
  %3 = alloca i32, align 4
  %4 = alloca ptr, align 8
  %5 = alloca ptr, align 8
  %6 = alloca ptr, align 8
  %7 = alloca %struct.tm, align 8
  %8 = alloca i32, align 4
  %9 = alloca [80 x i8], align 16
  %10 = alloca ptr, align 8
  %11 = alloca i64, align 8
  %12 = alloca i32, align 4
  store ptr %0, ptr %4, align 8, !tbaa !3
  store ptr %1, ptr %5, align 8, !tbaa !176
  call void @llvm.lifetime.start.p0(i64 8, ptr %6) #7
  call void @llvm.lifetime.start.p0(i64 56, ptr %7) #7
  call void @llvm.lifetime.start.p0(i64 4, ptr %8) #7
  call void @llvm.lifetime.start.p0(i64 80, ptr %9) #7
  call void @llvm.lifetime.start.p0(i64 8, ptr %10) #7
  call void @llvm.lifetime.start.p0(i64 8, ptr %11) #7
  %13 = load ptr, ptr %4, align 8, !tbaa !3
  %14 = getelementptr inbounds nuw %struct.Curl_easy, ptr %13, i32 0, i32 16
  %15 = getelementptr inbounds nuw %struct.UserDefined, ptr %14, i32 0, i32 115
  %16 = load i8, ptr %15, align 2, !tbaa !182
  %17 = zext i8 %16 to i32
  %18 = icmp eq i32 %17, 0
  br i1 %18, label %19, label %20

19:                                               ; preds = %2
  store i32 0, ptr %3, align 4
  store i32 1, ptr %12, align 4
  br label %96

20:                                               ; preds = %2
  %21 = load ptr, ptr %4, align 8, !tbaa !3
  %22 = getelementptr inbounds nuw %struct.Curl_easy, ptr %21, i32 0, i32 16
  %23 = getelementptr inbounds nuw %struct.UserDefined, ptr %22, i32 0, i32 50
  %24 = load i64, ptr %23, align 8, !tbaa !183
  %25 = call i32 @Curl_gmtime(i64 noundef %24, ptr noundef %7)
  store i32 %25, ptr %8, align 4, !tbaa !78
  %26 = load i32, ptr %8, align 4, !tbaa !78
  %27 = icmp ne i32 %26, 0
  br i1 %27, label %28, label %31

28:                                               ; preds = %20
  %29 = load ptr, ptr %4, align 8, !tbaa !3
  call void (ptr, ptr, ...) @Curl_failf(ptr noundef %29, ptr noundef @.str.28)
  %30 = load i32, ptr %8, align 4, !tbaa !78
  store i32 %30, ptr %3, align 4
  store i32 1, ptr %12, align 4
  br label %96

31:                                               ; preds = %20
  store ptr %7, ptr %6, align 8, !tbaa !184
  %32 = load ptr, ptr %4, align 8, !tbaa !3
  %33 = getelementptr inbounds nuw %struct.Curl_easy, ptr %32, i32 0, i32 16
  %34 = getelementptr inbounds nuw %struct.UserDefined, ptr %33, i32 0, i32 115
  %35 = load i8, ptr %34, align 2, !tbaa !182
  %36 = zext i8 %35 to i32
  switch i32 %36, label %37 [
    i32 1, label %41
    i32 2, label %42
    i32 3, label %43
  ]

37:                                               ; preds = %31
  br label %38

38:                                               ; preds = %37
  br label %39

39:                                               ; preds = %38
  br label %40

40:                                               ; preds = %39
  store i32 43, ptr %3, align 4
  store i32 1, ptr %12, align 4
  br label %96

41:                                               ; preds = %31
  store ptr @.str.29, ptr %10, align 8, !tbaa !82
  store i64 17, ptr %11, align 8, !tbaa !119
  br label %44

42:                                               ; preds = %31
  store ptr @.str.30, ptr %10, align 8, !tbaa !82
  store i64 19, ptr %11, align 8, !tbaa !119
  br label %44

43:                                               ; preds = %31
  store ptr @.str.31, ptr %10, align 8, !tbaa !82
  store i64 13, ptr %11, align 8, !tbaa !119
  br label %44

44:                                               ; preds = %43, %42, %41
  %45 = load ptr, ptr %4, align 8, !tbaa !3
  %46 = load ptr, ptr %10, align 8, !tbaa !82
  %47 = load i64, ptr %11, align 8, !tbaa !119
  %48 = call ptr @Curl_checkheaders(ptr noundef %45, ptr noundef %46, i64 noundef %47)
  %49 = icmp ne ptr %48, null
  br i1 %49, label %50, label %51

50:                                               ; preds = %44
  store i32 0, ptr %3, align 4
  store i32 1, ptr %12, align 4
  br label %96

51:                                               ; preds = %44
  %52 = getelementptr inbounds [80 x i8], ptr %9, i64 0, i64 0
  %53 = load ptr, ptr %10, align 8, !tbaa !82
  %54 = load ptr, ptr %6, align 8, !tbaa !184
  %55 = getelementptr inbounds nuw %struct.tm, ptr %54, i32 0, i32 6
  %56 = load i32, ptr %55, align 8, !tbaa !186
  %57 = icmp ne i32 %56, 0
  br i1 %57, label %58, label %63

58:                                               ; preds = %51
  %59 = load ptr, ptr %6, align 8, !tbaa !184
  %60 = getelementptr inbounds nuw %struct.tm, ptr %59, i32 0, i32 6
  %61 = load i32, ptr %60, align 8, !tbaa !186
  %62 = sub nsw i32 %61, 1
  br label %64

63:                                               ; preds = %51
  br label %64

64:                                               ; preds = %63, %58
  %65 = phi i32 [ %62, %58 ], [ 6, %63 ]
  %66 = sext i32 %65 to i64
  %67 = getelementptr inbounds [7 x ptr], ptr @Curl_wkday, i64 0, i64 %66
  %68 = load ptr, ptr %67, align 8, !tbaa !82
  %69 = load ptr, ptr %6, align 8, !tbaa !184
  %70 = getelementptr inbounds nuw %struct.tm, ptr %69, i32 0, i32 3
  %71 = load i32, ptr %70, align 4, !tbaa !188
  %72 = load ptr, ptr %6, align 8, !tbaa !184
  %73 = getelementptr inbounds nuw %struct.tm, ptr %72, i32 0, i32 4
  %74 = load i32, ptr %73, align 8, !tbaa !189
  %75 = sext i32 %74 to i64
  %76 = getelementptr inbounds [12 x ptr], ptr @Curl_month, i64 0, i64 %75
  %77 = load ptr, ptr %76, align 8, !tbaa !82
  %78 = load ptr, ptr %6, align 8, !tbaa !184
  %79 = getelementptr inbounds nuw %struct.tm, ptr %78, i32 0, i32 5
  %80 = load i32, ptr %79, align 4, !tbaa !190
  %81 = add nsw i32 %80, 1900
  %82 = load ptr, ptr %6, align 8, !tbaa !184
  %83 = getelementptr inbounds nuw %struct.tm, ptr %82, i32 0, i32 2
  %84 = load i32, ptr %83, align 8, !tbaa !191
  %85 = load ptr, ptr %6, align 8, !tbaa !184
  %86 = getelementptr inbounds nuw %struct.tm, ptr %85, i32 0, i32 1
  %87 = load i32, ptr %86, align 4, !tbaa !192
  %88 = load ptr, ptr %6, align 8, !tbaa !184
  %89 = getelementptr inbounds nuw %struct.tm, ptr %88, i32 0, i32 0
  %90 = load i32, ptr %89, align 8, !tbaa !193
  %91 = call i32 (ptr, i64, ptr, ...) @curl_msnprintf(ptr noundef %52, i64 noundef 80, ptr noundef @.str.32, ptr noundef %53, ptr noundef %68, i32 noundef %71, ptr noundef %77, i32 noundef %81, i32 noundef %84, i32 noundef %87, i32 noundef %90)
  %92 = load ptr, ptr %5, align 8, !tbaa !176
  %93 = getelementptr inbounds [80 x i8], ptr %9, i64 0, i64 0
  %94 = call i32 @Curl_dyn_add(ptr noundef %92, ptr noundef %93)
  store i32 %94, ptr %8, align 4, !tbaa !78
  %95 = load i32, ptr %8, align 4, !tbaa !78
  store i32 %95, ptr %3, align 4
  store i32 1, ptr %12, align 4
  br label %96

96:                                               ; preds = %64, %50, %40, %28, %19
  call void @llvm.lifetime.end.p0(i64 8, ptr %11) #7
  call void @llvm.lifetime.end.p0(i64 8, ptr %10) #7
  call void @llvm.lifetime.end.p0(i64 80, ptr %9) #7
  call void @llvm.lifetime.end.p0(i64 4, ptr %8) #7
  call void @llvm.lifetime.end.p0(i64 56, ptr %7) #7
  call void @llvm.lifetime.end.p0(i64 8, ptr %6) #7
  %97 = load i32, ptr %3, align 4
  ret i32 %97
}